target datalayout = "e-m:e-p270:32:32-p271:32:32-p272:64:64-i64:64-i128:128-f80:128-n8:16:32:64-S128"
target triple = "x86_64-pc-linux-gnu"

%struct.anon = type { [2 x double], [2 x double] }

; Function Attrs: nounwind uwtable
define internal void @SetInitialGuess1(ptr noundef %0, ptr noundef %1) #0 {
  %3 = alloca ptr, align 8
  %4 = alloca ptr, align 8
  %5 = alloca double, align 8
  %6 = alloca double, align 8
  %7 = alloca ptr, align 8
  %8 = alloca ptr, align 8
  %9 = alloca ptr, align 8
  store ptr %0, ptr %3, align 8, !tbaa !4
  store ptr %1, ptr %4, align 8, !tbaa !9
  call void @llvm.lifetime.start.p0(i64 8, ptr %5) #6
  call void @llvm.lifetime.start.p0(i64 8, ptr %6) #6
  call void @llvm.lifetime.start.p0(i64 8, ptr %7) #6
  call void @llvm.lifetime.start.p0(i64 8, ptr %8) #6
  call void @llvm.lifetime.start.p0(i64 8, ptr %9) #6
  %10 = load ptr, ptr %3, align 8, !tbaa !4
  %11 = call ptr @N_VGetArrayPointer(ptr noundef %10)
  store ptr %11, ptr %7, align 8, !tbaa !33
  %12 = load ptr, ptr %4, align 8, !tbaa !9
  %13 = getelementptr inbounds nuw %struct.anon, ptr %12, i32 0, i32 0
  %14 = getelementptr inbounds [2 x double], ptr %13, i64 0, i64 0
  store ptr %14, ptr %8, align 8, !tbaa !33
  %15 = load ptr, ptr %4, align 8, !tbaa !9
  %16 = getelementptr inbounds nuw %struct.anon, ptr %15, i32 0, i32 1
  %17 = getelementptr inbounds [2 x double], ptr %16, i64 0, i64 0
  store ptr %17, ptr %9, align 8, !tbaa !33
  %18 = load ptr, ptr %8, align 8, !tbaa !33
  %19 = getelementptr inbounds double, ptr %18, i64 0
  %20 = load double, ptr %19, align 8, !tbaa !16
  store double %20, ptr %5, align 8, !tbaa !16
  %21 = load ptr, ptr %8, align 8, !tbaa !33
  %22 = getelementptr inbounds double, ptr %21, i64 1
  %23 = load double, ptr %22, align 8, !tbaa !16
  store double %23, ptr %6, align 8, !tbaa !16
  %24 = load double, ptr %5, align 8, !tbaa !16
  %25 = load ptr, ptr %7, align 8, !tbaa !33
  %26 = getelementptr inbounds double, ptr %25, i64 0
  store double %24, ptr %26, align 8, !tbaa !16
  %27 = load double, ptr %6, align 8, !tbaa !16
  %28 = load ptr, ptr %7, align 8, !tbaa !33
  %29 = getelementptr inbounds double, ptr %28, i64 1
  store double %27, ptr %29, align 8, !tbaa !16
  %30 = load double, ptr %5, align 8, !tbaa !16
  %31 = load ptr, ptr %8, align 8, !tbaa !33
  %32 = getelementptr inbounds double, ptr %31, i64 0
  %33 = load double, ptr %32, align 8, !tbaa !16
  %34 = fsub double %30, %33
  %35 = load ptr, ptr %7, align 8, !tbaa !33
  %36 = getelementptr inbounds double, ptr %35, i64 2
  store double %34, ptr %36, align 8, !tbaa !16
  %37 = load double, ptr %5, align 8, !tbaa !16
  %38 = load ptr, ptr %9, align 8, !tbaa !33
  %39 = getelementptr inbounds double, ptr %38, i64 0
  %40 = load double, ptr %39, align 8, !tbaa !16
  %41 = fsub double %37, %40
  %42 = load ptr, ptr %7, align 8, !tbaa !33
  %43 = getelementptr inbounds double, ptr %42, i64 3
  store double %41, ptr %43, align 8, !tbaa !16
  %44 = load double, ptr %6, align 8, !tbaa !16
  %45 = load ptr, ptr %8, align 8, !tbaa !33
  %46 = getelementptr inbounds double, ptr %45, i64 1
  %47 = load double, ptr %46, align 8, !tbaa !16
  %48 = fsub double %44, %47
  %49 = load ptr, ptr %7, align 8, !tbaa !33
  %50 = getelementptr inbounds double, ptr %49, i64 4
  store double %48, ptr %50, align 8, !tbaa !16
  %51 = load double, ptr %6, align 8, !tbaa !16
  %52 = load ptr, ptr %9, align 8, !tbaa !33
  %53 = getelementptr inbounds double, ptr %52, i64 1
  %54 = load double, ptr %53, align 8, !tbaa !16
  %55 = fsub double %51, %54
  %56 = load ptr, ptr %7, align 8, !tbaa !33
  %57 = getelementptr inbounds double, ptr %56, i64 5
  store double %55, ptr %57, align 8, !tbaa !16
  call void @llvm.lifetime.end.p0(i64 8, ptr %9) #6
  call void @llvm.lifetime.end.p0(i64 8, ptr %8) #6
  call void @llvm.lifetime.end.p0(i64 8, ptr %7) #6
  call void @llvm.lifetime.end.p0(i64 8, ptr %6) #6
  call void @llvm.lifetime.end.p0(i64 8, ptr %5) #6
  ret void
}