; Function Attrs: nounwind uwtable
define internal fastcc void @SetInitialGuess1(ptr noundef %0, ptr noundef readonly captures(none) %1) unnamed_addr #0 {
  %3 = tail call ptr @N_VGetArrayPointer(ptr noundef %0) #11
  %4 = getelementptr inbounds nuw i8, ptr %1, i64 16
  %5 = load double, ptr %1, align 8, !tbaa !9
  %6 = getelementptr inbounds nuw i8, ptr %1, i64 8
  %7 = load double, ptr %6, align 8, !tbaa !9
  store double %5, ptr %3, align 8, !tbaa !9
  %8 = getelementptr inbounds nuw i8, ptr %3, i64 8
  store double %7, ptr %8, align 8, !tbaa !9
  %9 = load double, ptr %1, align 8, !tbaa !9
  %10 = fsub double %5, %9
  %11 = getelementptr inbounds nuw i8, ptr %3, i64 16
  store double %10, ptr %11, align 8, !tbaa !9
  %12 = load double, ptr %4, align 8, !tbaa !9
  %13 = fsub double %5, %12
  %14 = getelementptr inbounds nuw i8, ptr %3, i64 24
  store double %13, ptr %14, align 8, !tbaa !9
  %15 = load double, ptr %6, align 8, !tbaa !9
  %16 = fsub double %7, %15
  %17 = getelementptr inbounds nuw i8, ptr %3, i64 32
  store double %16, ptr %17, align 8, !tbaa !9
  %18 = getelementptr inbounds nuw i8, ptr %1, i64 24
  %19 = load double, ptr %18, align 8, !tbaa !9
  %20 = fsub double %7, %19
  %21 = getelementptr inbounds nuw i8, ptr %3, i64 40
  store double %20, ptr %21, align 8, !tbaa !9
  ret void
}